target datalayout = "e-m:e-p270:32:32-p271:32:32-p272:64:64-i64:64-i128:128-f80:128-n8:16:32:64-S128"
target triple = "x86_64-pc-linux-gnu"

; Function Attrs: inlinehint mustprogress nounwind uwtable
define internal noundef signext i8 @_ZL9U_SUCCESS10UErrorCode(i32 noundef %0) #2 {
  %2 = alloca i32, align 4
  store i32 %0, ptr %2, align 4, !tbaa !9
  %3 = load i32, ptr %2, align 4, !tbaa !9
  %4 = icmp sle i32 %3, 0
  %5 = zext i1 %4 to i8
  ret i8 %5
}

; Function Attrs: mustprogress uwtable
define ptr @ubiditransform_open_77(ptr noundef %0) #0 {
  %2 = alloca ptr, align 8
  %3 = alloca ptr, align 8
  store ptr %0, ptr %2, align 8, !tbaa !3
  call void @llvm.lifetime.start.p0(i64 8, ptr %3) #7
  store ptr null, ptr %3, align 8, !tbaa !7
  %4 = load ptr, ptr %2, align 8, !tbaa !3
  %5 = load i32, ptr %4, align 4, !tbaa !9
  %6 = call noundef signext i8 @_ZL9U_SUCCESS10UErrorCode(i32 noundef %5)
  %7 = icmp ne i8 %6, 0
  br i1 %7, label %8, label %15

8:                                                ; preds = %1
  %9 = call noalias ptr @uprv_calloc_77(i64 noundef 1, i64 noundef 72) #8
  store ptr %9, ptr %3, align 8, !tbaa !7
  %10 = load ptr, ptr %3, align 8, !tbaa !7
  %11 = icmp eq ptr %10, null
  br i1 %11, label %12, label %14

12:                                               ; preds = %8
  %13 = load ptr, ptr %2, align 8, !tbaa !3
  store i32 7, ptr %13, align 4, !tbaa !9
  br label %14

14:                                               ; preds = %12, %8
  br label %15

15:                                               ; preds = %14, %1
  %16 = load ptr, ptr %3, align 8, !tbaa !7
  call void @llvm.lifetime.end.p0(i64 8, ptr %3) #7
  ret ptr %16
}