; Function Attrs: mustprogress uwtable
define noalias noundef ptr @ubiditransform_open_77(ptr noundef captures(none) %0) local_unnamed_addr #0 {
  %2 = load i32, ptr %0, align 4, !tbaa !3
  %3 = icmp sgt i32 %2, 0
  br i1 %3, label %8, label %4

4:                                                ; preds = %1
  %5 = tail call noalias dereferenceable_or_null(72) ptr @uprv_calloc_77(i64 noundef 1, i64 noundef 72) #6
  %6 = icmp eq ptr %5, null
  br i1 %6, label %7, label %8

7:                                                ; preds = %4
  store i32 7, ptr %0, align 4, !tbaa !3
  br label %8

8:                                                ; preds = %4, %7, %1
  %.0 = phi ptr [ null, %7 ], [ %5, %4 ], [ null, %1 ]
  ret ptr %.0
}